; Function Attrs: mustprogress nounwind uwtable
define dso_local void @_ZNK4llvm17DbgVariableRecord11getFragmentEv(ptr dead_on_unwind noalias writable sret(%"class.std::optional") align 8 %0, ptr nocapture noundef nonnull readonly align 8 dereferenceable(96) %1) local_unnamed_addr #0 align 2 {
  %3 = getelementptr inbounds nuw i8, ptr %1, i64 80
  %4 = load ptr, ptr %3, align 8
  %5 = getelementptr inbounds nuw i8, ptr %4, i64 16
  %6 = load ptr, ptr %5, align 8, !noalias !65
  %7 = getelementptr inbounds i8, ptr %4, i64 24
  %8 = load ptr, ptr %7, align 8, !noalias !65
  %9 = ptrtoint ptr %8 to i64
  %10 = ptrtoint ptr %6 to i64
  %11 = sub i64 %9, %10
  %12 = getelementptr inbounds i8, ptr %6, i64 %11
  tail call void @_ZN4llvm12DIExpression15getFragmentInfoENS0_16expr_op_iteratorES1_(ptr dead_on_unwind writable sret(%"class.std::optional") align 8 %0, ptr %6, ptr %12) #17
  ret void
}